; Function Attrs: mustprogress nounwind uwtable
define internal fastcc { ptr, i32 } @_ZL14getF32ConstantRN4llvm12SelectionDAGEjRKNS_5SDLocE(ptr noundef nonnull align 8 dereferenceable(904) %0, i32 noundef %1, ptr noundef nonnull align 8 dereferenceable(12) %2) unnamed_addr #0 {
  %4 = alloca %"class.llvm::APFloat", align 8
  %5 = alloca %"class.llvm::APInt", align 8
  %6 = tail call noundef nonnull align 1 ptr @_ZN4llvm11APFloatBase10IEEEsingleEv() #37
  %7 = zext i32 %1 to i64
  %8 = getelementptr inbounds nuw i8, ptr %5, i64 8
  store i32 32, ptr %8, align 8
  store i64 %7, ptr %5, align 8
  %9 = getelementptr inbounds nuw i8, ptr %4, i64 8
  %10 = tail call noundef nonnull align 1 ptr @_ZN4llvm11APFloatBase15PPCDoubleDoubleEv() #37
  %.not.i.i = icmp eq ptr %6, %10
  br i1 %.not.i.i, label %12, label %11

11:                                               ; preds = %3
  call void @_ZN4llvm6detail9IEEEFloatC1ERKNS_12fltSemanticsERKNS_5APIntE(ptr noundef nonnull align 8 dereferenceable(24) %9, ptr noundef nonnull align 1 %6, ptr noundef nonnull align 8 dereferenceable(12) %5) #32
  br label %_ZN4llvm7APFloatC2ERKNS_12fltSemanticsERKNS_5APIntE.exit

12:                                               ; preds = %3
  call void @_ZN4llvm6detail13DoubleAPFloatC1ERKNS_12fltSemanticsERKNS_5APIntE(ptr noundef nonnull align 8 dereferenceable(16) %9, ptr noundef nonnull align 1 %6, ptr noundef nonnull align 8 dereferenceable(12) %5) #32
  br label %_ZN4llvm7APFloatC2ERKNS_12fltSemanticsERKNS_5APIntE.exit

_ZN4llvm7APFloatC2ERKNS_12fltSemanticsERKNS_5APIntE.exit: ; preds = %11, %12
  %13 = call { ptr, i32 } @_ZN4llvm12SelectionDAG13getConstantFPERKNS_7APFloatERKNS_5SDLocENS_3EVTEb(ptr noundef nonnull align 8 dereferenceable(904) %0, ptr noundef nonnull align 8 dereferenceable(32) %4, ptr noundef nonnull align 8 dereferenceable(12) %2, i16 12, ptr null, i1 noundef zeroext false) #32
  %14 = load ptr, ptr %9, align 8
  %.not.i = icmp eq ptr %14, %10
  br i1 %.not.i, label %16, label %15

15:                                               ; preds = %_ZN4llvm7APFloatC2ERKNS_12fltSemanticsERKNS_5APIntE.exit
  call void @_ZN4llvm6detail9IEEEFloatD1Ev(ptr noundef nonnull align 8 dereferenceable(24) %9) #32
  br label %_ZN4llvm7APFloatD2Ev.exit

16:                                               ; preds = %_ZN4llvm7APFloatC2ERKNS_12fltSemanticsERKNS_5APIntE.exit
  call void @_ZN4llvm6detail13DoubleAPFloatD2Ev(ptr noundef nonnull align 8 dereferenceable(16) %9) #32
  br label %_ZN4llvm7APFloatD2Ev.exit

_ZN4llvm7APFloatD2Ev.exit:                        ; preds = %15, %16
  %17 = load i32, ptr %8, align 8
  %18 = icmp ugt i32 %17, 64
  br i1 %18, label %19, label %_ZN4llvm5APIntD2Ev.exit

19:                                               ; preds = %_ZN4llvm7APFloatD2Ev.exit
  %20 = load ptr, ptr %5, align 8
  %21 = icmp eq ptr %20, null
  br i1 %21, label %_ZN4llvm5APIntD2Ev.exit, label %22

22:                                               ; preds = %19
  call void @_ZdaPv(ptr noundef nonnull %20) #36
  br label %_ZN4llvm5APIntD2Ev.exit

_ZN4llvm5APIntD2Ev.exit:                          ; preds = %_ZN4llvm7APFloatD2Ev.exit, %19, %22
  ret { ptr, i32 } %13
}